; Function Attrs: mustprogress nofree norecurse nosync nounwind willreturn memory(argmem: write) uwtable
define void @_ZN6icu_7518UnicodeSetIteratorC2Ev(ptr nocapture noundef nonnull writeonly align 8 dereferenceable(64) %this) unnamed_addr #3 align 2 personality ptr @__gxx_personality_v0 {
invoke.cont:
  store ptr getelementptr inbounds ({ [5 x ptr] }, ptr @_ZTVN6icu_7518UnicodeSetIteratorE, i64 0, i32 0, i64 2), ptr %this, align 8
  %set = getelementptr inbounds i8, ptr %this, i64 24
  store ptr null, ptr %set, align 8
  %cpString = getelementptr inbounds i8, ptr %this, i64 56
  store ptr null, ptr %cpString, align 8
  %endRange.i = getelementptr inbounds i8, ptr %this, i64 32
  %0 = getelementptr inbounds i8, ptr %this, i64 52
  store i32 0, ptr %0, align 4
  store <4 x i32> <i32 -1, i32 0, i32 -1, i32 0>, ptr %endRange.i, align 8
  %nextString.i = getelementptr inbounds i8, ptr %this, i64 48
  store i32 0, ptr %nextString.i, align 8
  %string.i = getelementptr inbounds i8, ptr %this, i64 16
  store ptr null, ptr %string.i, align 8
  ret void
}